; Function Attrs: mustprogress nofree norecurse nosync nounwind willreturn memory(argmem: read) uwtable
define hidden i64 @hermesCompileResult_getBytecodeSize(ptr noundef readonly %res) local_unnamed_addr #3 {
entry:
  %tobool.not = icmp eq ptr %res, null
  br i1 %tobool.not, label %return, label %lor.lhs.false

lor.lhs.false:                                    ; preds = %entry
  %Size.i = getelementptr inbounds i8, ptr %res, i64 40
  %0 = load i32, ptr %Size.i, align 8
  %conv.i = zext i32 %0 to i64
  br label %return

return:                                           ; preds = %lor.lhs.false, %entry
  %retval.0 = phi i64 [ 0, %entry ], [ %conv.i, %lor.lhs.false ]
  ret i64 %retval.0
}